ARM GAS  /tmp/ccyVX5xW.s 			page 1


   1              		.cpu cortex-m4
   2              		.arch armv7e-m
   3              		.fpu fpv4-sp-d16
   4              		.eabi_attribute 27, 1
   5              		.eabi_attribute 28, 1
   6              		.eabi_attribute 20, 1
   7              		.eabi_attribute 21, 1
   8              		.eabi_attribute 23, 3
   9              		.eabi_attribute 24, 1
  10              		.eabi_attribute 25, 1
  11              		.eabi_attribute 26, 1
  12              		.eabi_attribute 30, 2
  13              		.eabi_attribute 34, 1
  14              		.eabi_attribute 18, 4
  15              		.file	"dma.c"
  16              		.text
  17              		.section	.text.DMA_Init,"ax",%progbits
  18              		.align	1
  19              		.p2align 2,,3
  20              		.global	DMA_Init
  21              		.syntax unified
  22              		.thumb
  23              		.thumb_func
  25              	DMA_Init:
  26              		@ args = 0, pretend = 0, frame = 0
  27              		@ frame_needed = 0, uses_anonymous_args = 0
  28 0000 D0F804C0 		ldr	ip, [r0, #4]	@ unaligned
  29 0004 BCF1010F 		cmp	ip, #1
  30 0008 30B5     		push	{r4, r5, lr}
  31 000a 6AD0     		beq	.L39
  32 000c BCF1020F 		cmp	ip, #2
  33 0010 66D1     		bne	.L1
  34 0012 684A     		ldr	r2, .L40
  35 0014 136B     		ldr	r3, [r2, #48]
  36 0016 43F48003 		orr	r3, r3, #4194304
  37 001a 1363     		str	r3, [r2, #48]
  38 001c 8268     		ldr	r2, [r0, #8]	@ unaligned
  39 001e 072A     		cmp	r2, #7
  40 0020 5ED8     		bhi	.L1
  41 0022 DFE802F0 		tbb	[pc, r2]
  42              	.L16:
  43 0026 A5       		.byte	(.L27-.L16)/2
  44 0027 A0       		.byte	(.L22-.L16)/2
  45 0028 B7       		.byte	(.L21-.L16)/2
  46 0029 AB       		.byte	(.L20-.L16)/2
  47 002a B1       		.byte	(.L19-.L16)/2
  48 002b C0       		.byte	(.L18-.L16)/2
  49 002c C3       		.byte	(.L17-.L16)/2
  50 002d BD       		.byte	(.L15-.L16)/2
  51              		.p2align 1
  52              	.L11:
  53 002e 624B     		ldr	r3, .L40+4
  54 0030 4FF48054 		mov	r4, #4096
  55 0034 4FF0000C 		mov	ip, #0
  56              	.L12:
  57 0038 0022     		movs	r2, #0
  58 003a 0360     		str	r3, [r0]	@ unaligned
ARM GAS  /tmp/ccyVX5xW.s 			page 2


  59 003c 1A60     		str	r2, [r3]
  60              	.L23:
  61 003e 1A68     		ldr	r2, [r3]
  62 0040 002A     		cmp	r2, #0
  63 0042 FCD1     		bne	.L23
  64 0044 1968     		ldr	r1, [r3]
  65 0046 C568     		ldr	r5, [r0, #12]	@ unaligned
  66 0048 41EA4561 		orr	r1, r1, r5, lsl #25
  67 004c 1960     		str	r1, [r3]
  68 004e 0169     		ldr	r1, [r0, #16]	@ unaligned
  69 0050 D960     		str	r1, [r3, #12]
  70 0052 4169     		ldr	r1, [r0, #20]	@ unaligned
  71 0054 1961     		str	r1, [r3, #16]
  72 0056 8169     		ldr	r1, [r0, #24]	@ unaligned
  73 0058 9960     		str	r1, [r3, #8]
  74 005a C169     		ldr	r1, [r0, #28]	@ unaligned
  75 005c 5960     		str	r1, [r3, #4]
  76 005e 90F82110 		ldrb	r1, [r0, #33]	@ zero_extendqisi2
  77 0062 90F82250 		ldrb	r5, [r0, #34]	@ zero_extendqisi2
  78 0066 4903     		lsls	r1, r1, #13
  79 0068 41EAC521 		orr	r1, r1, r5, lsl #11
  80 006c 1D68     		ldr	r5, [r3]
  81 006e 2943     		orrs	r1, r1, r5
  82 0070 1960     		str	r1, [r3]
  83 0072 1968     		ldr	r1, [r3]
  84 0074 41F44031 		orr	r1, r1, #196608
  85 0078 1960     		str	r1, [r3]
  86 007a D0F82310 		ldr	r1, [r0, #35]	@ unaligned
  87 007e D0F82750 		ldr	r5, [r0, #39]	@ unaligned
  88 0082 8902     		lsls	r1, r1, #10
  89 0084 41EA4521 		orr	r1, r1, r5, lsl #9
  90 0088 1D68     		ldr	r5, [r3]
  91 008a 2943     		orrs	r1, r1, r5
  92 008c 1960     		str	r1, [r3]
  93 008e 5A61     		str	r2, [r3, #20]
  94 0090 1A68     		ldr	r2, [r3]
  95 0092 90F83310 		ldrb	r1, [r0, #51]	@ zero_extendqisi2
  96 0096 42EA8112 		orr	r2, r2, r1, lsl #6
  97 009a 1A60     		str	r2, [r3]
  98 009c 1A68     		ldr	r2, [r3]
  99 009e D0F82F10 		ldr	r1, [r0, #47]	@ unaligned
 100 00a2 42EA0122 		orr	r2, r2, r1, lsl #8
 101 00a6 1A60     		str	r2, [r3]
 102 00a8 1A68     		ldr	r2, [r3]
 103 00aa D0F82B10 		ldr	r1, [r0, #43]	@ unaligned
 104 00ae 42EA8142 		orr	r2, r2, r1, lsl #18
 105 00b2 1A60     		str	r2, [r3]
 106 00b4 1D68     		ldr	r5, [r3]
 107 00b6 816B     		ldr	r1, [r0, #56]	@ unaligned
 108 00b8 D0F834E0 		ldr	lr, [r0, #52]	@ unaligned
 109 00bc 4FEA0E12 		lsl	r2, lr, #4
 110 00c0 42EAC102 		orr	r2, r2, r1, lsl #3
 111 00c4 2A43     		orrs	r2, r2, r5
 112 00c6 51EA0E01 		orrs	r1, r1, lr
 113 00ca 1A60     		str	r2, [r3]
 114 00cc 1CBF     		itt	ne
 115 00ce 3B4A     		ldrne	r2, .L40+8
ARM GAS  /tmp/ccyVX5xW.s 			page 3


 116 00d0 42F82C40 		strne	r4, [r2, ip, lsl #2]
 117 00d4 C26B     		ldr	r2, [r0, #60]	@ unaligned
 118 00d6 1AB1     		cbz	r2, .L1
 119 00d8 1A68     		ldr	r2, [r3]
 120 00da 42F00102 		orr	r2, r2, #1
 121 00de 1A60     		str	r2, [r3]
 122              	.L1:
 123 00e0 30BD     		pop	{r4, r5, pc}
 124              	.L39:
 125 00e2 344A     		ldr	r2, .L40
 126 00e4 136B     		ldr	r3, [r2, #48]
 127 00e6 43F40013 		orr	r3, r3, #2097152
 128 00ea 1363     		str	r3, [r2, #48]
 129 00ec 8268     		ldr	r2, [r0, #8]	@ unaligned
 130 00ee 072A     		cmp	r2, #7
 131 00f0 F6D8     		bhi	.L1
 132 00f2 01A3     		adr	r3, .L5
 133 00f4 53F822F0 		ldr	pc, [r3, r2, lsl #2]
 134              		.p2align 2
 135              	.L5:
 136 00f8 19010000 		.word	.L26+1
 137 00fc 2F000000 		.word	.L11+1
 138 0100 43010000 		.word	.L10+1
 139 0104 4F010000 		.word	.L9+1
 140 0108 5B010000 		.word	.L8+1
 141 010c 2B010000 		.word	.L7+1
 142 0110 37010000 		.word	.L6+1
 143 0114 23010000 		.word	.L4+1
 144              		.p2align 1
 145              	.L26:
 146 0118 294B     		ldr	r3, .L40+12
 147 011a 9446     		mov	ip, r2
 148 011c 4FF40064 		mov	r4, #2048
 149 0120 8AE7     		b	.L12
 150              	.L4:
 151 0122 284B     		ldr	r3, .L40+16
 152 0124 4FF40044 		mov	r4, #32768
 153 0128 86E7     		b	.L12
 154              	.L7:
 155 012a 274B     		ldr	r3, .L40+20
 156 012c 4FF48034 		mov	r4, #65536
 157 0130 4FF0000C 		mov	ip, #0
 158 0134 80E7     		b	.L12
 159              	.L6:
 160 0136 254B     		ldr	r3, .L40+24
 161 0138 4FF40034 		mov	r4, #131072
 162 013c 4FF0000C 		mov	ip, #0
 163 0140 7AE7     		b	.L12
 164              	.L10:
 165 0142 234B     		ldr	r3, .L40+28
 166 0144 4FF40054 		mov	r4, #8192
 167 0148 4FF0000C 		mov	ip, #0
 168 014c 74E7     		b	.L12
 169              	.L9:
 170 014e 214B     		ldr	r3, .L40+32
 171 0150 4FF48044 		mov	r4, #16384
 172 0154 4FF0000C 		mov	ip, #0
ARM GAS  /tmp/ccyVX5xW.s 			page 4


 173 0158 6EE7     		b	.L12
 174              	.L8:
 175 015a 1F4B     		ldr	r3, .L40+36
 176 015c 4FF40044 		mov	r4, #32768
 177 0160 4FF0000C 		mov	ip, #0
 178 0164 68E7     		b	.L12
 179              	.L22:
 180 0166 1D4B     		ldr	r3, .L40+40
 181 0168 9446     		mov	ip, r2
 182 016a 4FF00074 		mov	r4, #33554432
 183 016e 63E7     		b	.L12
 184              	.L27:
 185 0170 1B4B     		ldr	r3, .L40+44
 186 0172 4FF08074 		mov	r4, #16777216
 187 0176 4FF0010C 		mov	ip, #1
 188 017a 5DE7     		b	.L12
 189              	.L20:
 190 017c 194B     		ldr	r3, .L40+48
 191 017e 4FF00064 		mov	r4, #134217728
 192 0182 4FF0010C 		mov	ip, #1
 193 0186 57E7     		b	.L12
 194              	.L19:
 195 0188 174B     		ldr	r3, .L40+52
 196 018a 4FF08054 		mov	r4, #268435456
 197 018e 4FF0010C 		mov	ip, #1
 198 0192 51E7     		b	.L12
 199              	.L21:
 200 0194 154B     		ldr	r3, .L40+56
 201 0196 4FF08064 		mov	r4, #67108864
 202 019a 4FF0010C 		mov	ip, #1
 203 019e 4BE7     		b	.L12
 204              	.L15:
 205 01a0 134B     		ldr	r3, .L40+60
 206 01a2 4024     		movs	r4, #64
 207 01a4 48E7     		b	.L12
 208              	.L18:
 209 01a6 134B     		ldr	r3, .L40+64
 210 01a8 1024     		movs	r4, #16
 211 01aa 45E7     		b	.L12
 212              	.L17:
 213 01ac 124B     		ldr	r3, .L40+68
 214 01ae 2024     		movs	r4, #32
 215 01b0 42E7     		b	.L12
 216              	.L41:
 217 01b2 00BF     		.align	2
 218              	.L40:
 219 01b4 00380240 		.word	1073887232
 220 01b8 28600240 		.word	1073897512
 221 01bc 00E100E0 		.word	-536813312
 222 01c0 10600240 		.word	1073897488
 223 01c4 B8600240 		.word	1073897656
 224 01c8 88600240 		.word	1073897608
 225 01cc A0600240 		.word	1073897632
 226 01d0 40600240 		.word	1073897536
 227 01d4 58600240 		.word	1073897560
 228 01d8 70600240 		.word	1073897584
 229 01dc 28640240 		.word	1073898536
ARM GAS  /tmp/ccyVX5xW.s 			page 5


 230 01e0 10640240 		.word	1073898512
 231 01e4 58640240 		.word	1073898584
 232 01e8 70640240 		.word	1073898608
 233 01ec 40640240 		.word	1073898560
 234 01f0 B8640240 		.word	1073898680
 235 01f4 88640240 		.word	1073898632
 236 01f8 A0640240 		.word	1073898656
 238              		.section	.text.DMA_Reload,"ax",%progbits
 239              		.align	1
 240              		.p2align 2,,3
 241              		.global	DMA_Reload
 242              		.syntax unified
 243              		.thumb
 244              		.thumb_func
 246              	DMA_Reload:
 247              		@ args = 0, pretend = 0, frame = 0
 248              		@ frame_needed = 0, uses_anonymous_args = 0
 249              		@ link register save eliminated.
 250 0000 0268     		ldr	r2, [r0]	@ unaligned
 251 0002 1368     		ldr	r3, [r2]
 252 0004 23F00103 		bic	r3, r3, #1
 253 0008 1360     		str	r3, [r2]
 254              	.L43:
 255 000a 1368     		ldr	r3, [r2]
 256 000c DB07     		lsls	r3, r3, #31
 257 000e FCD4     		bmi	.L43
 258 0010 0369     		ldr	r3, [r0, #16]	@ unaligned
 259 0012 D360     		str	r3, [r2, #12]
 260 0014 4369     		ldr	r3, [r0, #20]	@ unaligned
 261 0016 1361     		str	r3, [r2, #16]
 262 0018 8369     		ldr	r3, [r0, #24]	@ unaligned
 263 001a 9360     		str	r3, [r2, #8]
 264 001c C369     		ldr	r3, [r0, #28]	@ unaligned
 265 001e 5360     		str	r3, [r2, #4]
 266 0020 7047     		bx	lr
 268 0022 00BF     		.section	.text.DMA_Enable,"ax",%progbits
 269              		.align	1
 270              		.p2align 2,,3
 271              		.global	DMA_Enable
 272              		.syntax unified
 273              		.thumb
 274              		.thumb_func
 276              	DMA_Enable:
 277              		@ args = 0, pretend = 0, frame = 0
 278              		@ frame_needed = 0, uses_anonymous_args = 0
 279              		@ link register save eliminated.
 280 0000 0268     		ldr	r2, [r0]	@ unaligned
 281 0002 1368     		ldr	r3, [r2]
 282 0004 43F00103 		orr	r3, r3, #1
 283 0008 1360     		str	r3, [r2]
 284 000a 7047     		bx	lr
 286              		.section	.text.DMA_Disable,"ax",%progbits
 287              		.align	1
 288              		.p2align 2,,3
 289              		.global	DMA_Disable
 290              		.syntax unified
 291              		.thumb
ARM GAS  /tmp/ccyVX5xW.s 			page 6


 292              		.thumb_func
 294              	DMA_Disable:
 295              		@ args = 0, pretend = 0, frame = 0
 296              		@ frame_needed = 0, uses_anonymous_args = 0
 297              		@ link register save eliminated.
 298 0000 0268     		ldr	r2, [r0]	@ unaligned
 299 0002 1368     		ldr	r3, [r2]
 300 0004 23F00103 		bic	r3, r3, #1
 301 0008 1360     		str	r3, [r2]
 302 000a 7047     		bx	lr
 304              		.ident	"GCC: (15:12.2.rel1-1) 12.2.1 20221205"
ARM GAS  /tmp/ccyVX5xW.s 			page 7

