ARM GAS  /tmp/cckVltCK.s 			page 1


   1              		.cpu cortex-m4
   2              		.arch armv7e-m
   3              		.fpu fpv4-sp-d16
   4              		.eabi_attribute 27, 1
   5              		.eabi_attribute 28, 1
   6              		.eabi_attribute 20, 1
   7              		.eabi_attribute 21, 1
   8              		.eabi_attribute 23, 3
   9              		.eabi_attribute 24, 1
  10              		.eabi_attribute 25, 1
  11              		.eabi_attribute 26, 1
  12              		.eabi_attribute 30, 2
  13              		.eabi_attribute 34, 1
  14              		.eabi_attribute 18, 4
  15              		.file	"rtc.c"
  16              		.text
  17              		.section	.text.RTC_Init,"ax",%progbits
  18              		.align	1
  19              		.p2align 2,,3
  20              		.global	RTC_Init
  21              		.syntax unified
  22              		.thumb
  23              		.thumb_func
  25              	RTC_Init:
  26              		@ args = 0, pretend = 0, frame = 0
  27              		@ frame_needed = 0, uses_anonymous_args = 0
  28              		@ link register save eliminated.
  29 0000 2049     		ldr	r1, .L10
  30 0002 214A     		ldr	r2, .L10+4
  31 0004 0B6C     		ldr	r3, [r1, #64]
  32 0006 43F08053 		orr	r3, r3, #268435456
  33 000a 10B4     		push	{r4}
  34 000c 0B64     		str	r3, [r1, #64]
  35 000e 1368     		ldr	r3, [r2]
  36 0010 43F48073 		orr	r3, r3, #256
  37 0014 1360     		str	r3, [r2]
  38              	.L2:
  39 0016 1368     		ldr	r3, [r2]
  40 0018 D905     		lsls	r1, r3, #23
  41 001a FCD5     		bpl	.L2
  42 001c 194A     		ldr	r2, .L10
  43 001e 1B4B     		ldr	r3, .L10+8
  44 0020 9168     		ldr	r1, [r2, #8]
  45 0022 41F40021 		orr	r1, r1, #524288
  46 0026 9160     		str	r1, [r2, #8]
  47 0028 116F     		ldr	r1, [r2, #112]
  48 002a 41F48031 		orr	r1, r1, #65536
  49 002e 1167     		str	r1, [r2, #112]
  50 0030 116F     		ldr	r1, [r2, #112]
  51 0032 21F48031 		bic	r1, r1, #65536
  52 0036 1167     		str	r1, [r2, #112]
  53 0038 116F     		ldr	r1, [r2, #112]
  54 003a 41F44071 		orr	r1, r1, #768
  55 003e 1167     		str	r1, [r2, #112]
  56 0040 116F     		ldr	r1, [r2, #112]
  57 0042 CA24     		movs	r4, #202
  58 0044 5320     		movs	r0, #83
ARM GAS  /tmp/cckVltCK.s 			page 2


  59 0046 41F40041 		orr	r1, r1, #32768
  60 004a 1167     		str	r1, [r2, #112]
  61 004c 5C62     		str	r4, [r3, #36]
  62 004e 5862     		str	r0, [r3, #36]
  63 0050 DA68     		ldr	r2, [r3, #12]
  64 0052 42F08002 		orr	r2, r2, #128
  65 0056 DA60     		str	r2, [r3, #12]
  66              	.L3:
  67 0058 DA68     		ldr	r2, [r3, #12]
  68 005a 5206     		lsls	r2, r2, #25
  69 005c FCD5     		bpl	.L3
  70 005e 41F63F72 		movw	r2, #7999
  71 0062 1A61     		str	r2, [r3, #16]
  72 0064 1A69     		ldr	r2, [r3, #16]
  73 0066 0A49     		ldr	r1, .L10+12
  74 0068 5DF8044B 		ldr	r4, [sp], #4
  75 006c 42F4F802 		orr	r2, r2, #8126464
  76 0070 1A61     		str	r2, [r3, #16]
  77 0072 1960     		str	r1, [r3]
  78 0074 DA68     		ldr	r2, [r3, #12]
  79 0076 0021     		movs	r1, #0
  80 0078 22F08002 		bic	r2, r2, #128
  81 007c DA60     		str	r2, [r3, #12]
  82 007e 5962     		str	r1, [r3, #36]
  83 0080 7047     		bx	lr
  84              	.L11:
  85 0082 00BF     		.align	2
  86              	.L10:
  87 0084 00380240 		.word	1073887232
  88 0088 00700040 		.word	1073770496
  89 008c 00280040 		.word	1073752064
  90 0090 08101800 		.word	1576968
  92              		.section	.text.RTC_GetBCD,"ax",%progbits
  93              		.align	1
  94              		.p2align 2,,3
  95              		.global	RTC_GetBCD
  96              		.syntax unified
  97              		.thumb
  98              		.thumb_func
 100              	RTC_GetBCD:
 101              		@ args = 0, pretend = 0, frame = 0
 102              		@ frame_needed = 0, uses_anonymous_args = 0
 103              		@ link register save eliminated.
 104 0000 114B     		ldr	r3, .L13
 105 0002 1A68     		ldr	r2, [r3]
 106 0004 C2F30152 		ubfx	r2, r2, #20, #2
 107 0008 3032     		adds	r2, r2, #48
 108 000a 0270     		strb	r2, [r0]
 109 000c 1A68     		ldr	r2, [r3]
 110 000e C2F30342 		ubfx	r2, r2, #16, #4
 111 0012 3A21     		movs	r1, #58
 112 0014 3032     		adds	r2, r2, #48
 113 0016 4270     		strb	r2, [r0, #1]
 114 0018 8170     		strb	r1, [r0, #2]
 115 001a 1A68     		ldr	r2, [r3]
 116 001c C2F30232 		ubfx	r2, r2, #12, #3
 117 0020 3032     		adds	r2, r2, #48
ARM GAS  /tmp/cckVltCK.s 			page 3


 118 0022 C270     		strb	r2, [r0, #3]
 119 0024 1A68     		ldr	r2, [r3]
 120 0026 4171     		strb	r1, [r0, #5]
 121 0028 C2F30322 		ubfx	r2, r2, #8, #4
 122 002c 3032     		adds	r2, r2, #48
 123 002e 0271     		strb	r2, [r0, #4]
 124 0030 1A68     		ldr	r2, [r3]
 125 0032 C2F30212 		ubfx	r2, r2, #4, #3
 126 0036 3032     		adds	r2, r2, #48
 127 0038 8271     		strb	r2, [r0, #6]
 128 003a 1B68     		ldr	r3, [r3]
 129 003c 03F00F03 		and	r3, r3, #15
 130 0040 3033     		adds	r3, r3, #48
 131 0042 C371     		strb	r3, [r0, #7]
 132 0044 7047     		bx	lr
 133              	.L14:
 134 0046 00BF     		.align	2
 135              	.L13:
 136 0048 00280040 		.word	1073752064
 138              		.section	.text.RTC_GetNUM,"ax",%progbits
 139              		.align	1
 140              		.p2align 2,,3
 141              		.global	RTC_GetNUM
 142              		.syntax unified
 143              		.thumb
 144              		.thumb_func
 146              	RTC_GetNUM:
 147              		@ args = 0, pretend = 0, frame = 0
 148              		@ frame_needed = 0, uses_anonymous_args = 0
 149              		@ link register save eliminated.
 150 0000 124A     		ldr	r2, .L17
 151 0002 1168     		ldr	r1, [r2]
 152 0004 10B4     		push	{r4}
 153 0006 1468     		ldr	r4, [r2]
 154 0008 1368     		ldr	r3, [r2]
 155 000a C1F30151 		ubfx	r1, r1, #20, #2
 156 000e 01EB8101 		add	r1, r1, r1, lsl #2
 157 0012 C4F30344 		ubfx	r4, r4, #16, #4
 158 0016 04EB4104 		add	r4, r4, r1, lsl #1
 159 001a 1168     		ldr	r1, [r2]
 160 001c 0460     		str	r4, [r0]
 161 001e C3F30233 		ubfx	r3, r3, #12, #3
 162 0022 03EB8303 		add	r3, r3, r3, lsl #2
 163 0026 C1F30321 		ubfx	r1, r1, #8, #4
 164 002a 01EB4301 		add	r1, r1, r3, lsl #1
 165 002e 1368     		ldr	r3, [r2]
 166 0030 1268     		ldr	r2, [r2]
 167 0032 5DF8044B 		ldr	r4, [sp], #4
 168 0036 C3F30213 		ubfx	r3, r3, #4, #3
 169 003a 03EB8303 		add	r3, r3, r3, lsl #2
 170 003e 02F00F02 		and	r2, r2, #15
 171 0042 02EB4303 		add	r3, r2, r3, lsl #1
 172 0046 C0E90113 		strd	r1, r3, [r0, #4]
 173 004a 7047     		bx	lr
 174              	.L18:
 175              		.align	2
 176              	.L17:
ARM GAS  /tmp/cckVltCK.s 			page 4


 177 004c 00280040 		.word	1073752064
 179              		.ident	"GCC: (15:12.2.rel1-1) 12.2.1 20221205"
ARM GAS  /tmp/cckVltCK.s 			page 5

