ARM GAS  /tmp/ccCRJlpE.s 			page 1


   1              		.cpu cortex-m4
   2              		.arch armv7e-m
   3              		.fpu fpv4-sp-d16
   4              		.eabi_attribute 27, 1
   5              		.eabi_attribute 28, 1
   6              		.eabi_attribute 20, 1
   7              		.eabi_attribute 21, 1
   8              		.eabi_attribute 23, 3
   9              		.eabi_attribute 24, 1
  10              		.eabi_attribute 25, 1
  11              		.eabi_attribute 26, 1
  12              		.eabi_attribute 30, 2
  13              		.eabi_attribute 34, 1
  14              		.eabi_attribute 18, 4
  15              		.file	"usart.c"
  16              		.text
  17              		.section	.text.USART_Init,"ax",%progbits
  18              		.align	1
  19              		.p2align 2,,3
  20              		.global	USART_Init
  21              		.syntax unified
  22              		.thumb
  23              		.thumb_func
  25              	USART_Init:
  26              		@ args = 0, pretend = 0, frame = 0
  27              		@ frame_needed = 0, uses_anonymous_args = 0
  28              		@ link register save eliminated.
  29 0000 10B4     		push	{r4}
  30 0002 4368     		ldr	r3, [r0, #4]	@ unaligned
  31 0004 013B     		subs	r3, r3, #1
  32 0006 052B     		cmp	r3, #5
  33 0008 43D8     		bhi	.L1
  34 000a DFE803F0 		tbb	[pc, r3]
  35              	.L4:
  36 000e 62       		.byte	(.L9-.L4)/2
  37 000f 03       		.byte	(.L8-.L4)/2
  38 0010 A3       		.byte	(.L7-.L4)/2
  39 0011 7E       		.byte	(.L6-.L4)/2
  40 0012 90       		.byte	(.L5-.L4)/2
  41 0013 45       		.byte	(.L3-.L4)/2
  42              		.p2align 1
  43              	.L8:
  44 0014 7C49     		ldr	r1, .L57
  45 0016 0B6C     		ldr	r3, [r1, #64]
  46 0018 43F40033 		orr	r3, r3, #131072
  47 001c 0B64     		str	r3, [r1, #64]
  48 001e 8369     		ldr	r3, [r0, #24]	@ unaligned
  49 0020 0022     		movs	r2, #0
  50 0022 4424     		movs	r4, #68
  51 0024 4021     		movs	r1, #64
  52 0026 0270     		strb	r2, [r0]
  53 0028 4470     		strb	r4, [r0, #1]
  54 002a 8270     		strb	r2, [r0, #2]
  55 002c C170     		strb	r1, [r0, #3]
  56 002e 002B     		cmp	r3, #0
  57 0030 00F0B880 		beq	.L52
  58 0034 754B     		ldr	r3, .L57+4
ARM GAS  /tmp/ccCRJlpE.s 			page 2


  59 0036 4FF0260C 		mov	ip, #38
  60              	.L14:
  61 003a 5A69     		ldr	r2, [r3, #20]
  62 003c 42F08002 		orr	r2, r2, #128
  63 0040 5A61     		str	r2, [r3, #20]
  64 0042 4269     		ldr	r2, [r0, #20]	@ unaligned
  65 0044 1AB1     		cbz	r2, .L22
  66 0046 5A69     		ldr	r2, [r3, #20]
  67 0048 42F04002 		orr	r2, r2, #64
  68 004c 5A61     		str	r2, [r3, #20]
  69              	.L22:
  70 004e 704A     		ldr	r2, .L57+8
  71 0050 8168     		ldr	r1, [r0, #8]	@ unaligned
  72 0052 1268     		ldr	r2, [r2]
  73 0054 4901     		lsls	r1, r1, #5
  74 0056 D200     		lsls	r2, r2, #3
  75 0058 B2FBF1F2 		udiv	r2, r2, r1
  76 005c 9A60     		str	r2, [r3, #8]
  77              	.L31:
  78 005e C168     		ldr	r1, [r0, #12]	@ unaligned
  79 0060 0069     		ldr	r0, [r0, #16]	@ unaligned
  80 0062 DC68     		ldr	r4, [r3, #12]
  81 0064 C201     		lsls	r2, r0, #7
  82 0066 42EA4112 		orr	r2, r2, r1, lsl #5
  83 006a 2243     		orrs	r2, r2, r4
  84 006c 0143     		orrs	r1, r1, r0
  85 006e DA60     		str	r2, [r3, #12]
  86 0070 09D0     		beq	.L32
  87 0072 4FEA5C10 		lsr	r0, ip, #5
  88 0076 6749     		ldr	r1, .L57+12
  89 0078 0CF0170C 		and	ip, ip, #23
  90 007c 0122     		movs	r2, #1
  91 007e 02FA0CF2 		lsl	r2, r2, ip
  92 0082 41F82020 		str	r2, [r1, r0, lsl #2]
  93              	.L32:
  94 0086 0C22     		movs	r2, #12
  95 0088 DA60     		str	r2, [r3, #12]
  96 008a DA68     		ldr	r2, [r3, #12]
  97 008c 42F40052 		orr	r2, r2, #8192
  98 0090 DA60     		str	r2, [r3, #12]
  99              	.L1:
 100 0092 5DF8044B 		ldr	r4, [sp], #4
 101 0096 7047     		bx	lr
 102              	.L3:
 103 0098 5B4A     		ldr	r2, .L57
 104 009a 536C     		ldr	r3, [r2, #68]
 105 009c 43F02003 		orr	r3, r3, #32
 106 00a0 5364     		str	r3, [r2, #68]
 107 00a2 8369     		ldr	r3, [r0, #24]	@ unaligned
 108 00a4 4FF0000C 		mov	ip, #0
 109 00a8 1424     		movs	r4, #20
 110 00aa 0121     		movs	r1, #1
 111 00ac 4022     		movs	r2, #64
 112 00ae 80F800C0 		strb	ip, [r0]
 113 00b2 4470     		strb	r4, [r0, #1]
 114 00b4 8170     		strb	r1, [r0, #2]
 115 00b6 C270     		strb	r2, [r0, #3]
ARM GAS  /tmp/ccCRJlpE.s 			page 3


 116 00b8 002B     		cmp	r3, #0
 117 00ba 7ED1     		bne	.L41
 118 00bc 4369     		ldr	r3, [r0, #20]	@ unaligned
 119 00be 23B1     		cbz	r3, .L20
 120 00c0 554A     		ldr	r2, .L57+16
 121 00c2 5369     		ldr	r3, [r2, #20]
 122 00c4 43F04003 		orr	r3, r3, #64
 123 00c8 5361     		str	r3, [r2, #20]
 124              	.L20:
 125 00ca 534B     		ldr	r3, .L57+16
 126 00cc 4FF0470C 		mov	ip, #71
 127 00d0 7CE0     		b	.L12
 128              	.L9:
 129 00d2 4D4A     		ldr	r2, .L57
 130 00d4 536C     		ldr	r3, [r2, #68]
 131 00d6 1024     		movs	r4, #16
 132 00d8 2343     		orrs	r3, r3, r4
 133 00da 5364     		str	r3, [r2, #68]
 134 00dc 8369     		ldr	r3, [r0, #24]	@ unaligned
 135 00de 4470     		strb	r4, [r0, #1]
 136 00e0 4FF0000C 		mov	ip, #0
 137 00e4 0121     		movs	r1, #1
 138 00e6 4022     		movs	r2, #64
 139 00e8 80F800C0 		strb	ip, [r0]
 140 00ec 8170     		strb	r1, [r0, #2]
 141 00ee C270     		strb	r2, [r0, #3]
 142 00f0 002B     		cmp	r3, #0
 143 00f2 74D1     		bne	.L36
 144 00f4 4369     		ldr	r3, [r0, #20]	@ unaligned
 145 00f6 23B1     		cbz	r3, .L13
 146 00f8 484A     		ldr	r2, .L57+20
 147 00fa 5369     		ldr	r3, [r2, #20]
 148 00fc 43F04003 		orr	r3, r3, #64
 149 0100 5361     		str	r3, [r2, #20]
 150              	.L13:
 151 0102 464B     		ldr	r3, .L57+20
 152 0104 4FF0250C 		mov	ip, #37
 153 0108 60E0     		b	.L12
 154              	.L6:
 155 010a 3F49     		ldr	r1, .L57
 156 010c 0B6C     		ldr	r3, [r1, #64]
 157 010e 43F40023 		orr	r3, r3, #524288
 158 0112 0B64     		str	r3, [r1, #64]
 159 0114 8369     		ldr	r3, [r0, #24]	@ unaligned
 160 0116 0022     		movs	r2, #0
 161 0118 4C24     		movs	r4, #76
 162 011a 4021     		movs	r1, #64
 163 011c 0270     		strb	r2, [r0]
 164 011e 4470     		strb	r4, [r0, #1]
 165 0120 8270     		strb	r2, [r0, #2]
 166 0122 C170     		strb	r1, [r0, #3]
 167 0124 43B3     		cbz	r3, .L53
 168 0126 3E4B     		ldr	r3, .L57+24
 169 0128 4FF0340C 		mov	ip, #52
 170 012c 85E7     		b	.L14
 171              	.L5:
 172 012e 3649     		ldr	r1, .L57
ARM GAS  /tmp/ccCRJlpE.s 			page 4


 173 0130 0B6C     		ldr	r3, [r1, #64]
 174 0132 43F48013 		orr	r3, r3, #1048576
 175 0136 0B64     		str	r3, [r1, #64]
 176 0138 8369     		ldr	r3, [r0, #24]	@ unaligned
 177 013a 0022     		movs	r2, #0
 178 013c 5024     		movs	r4, #80
 179 013e 4021     		movs	r1, #64
 180 0140 0270     		strb	r2, [r0]
 181 0142 4470     		strb	r4, [r0, #1]
 182 0144 8270     		strb	r2, [r0, #2]
 183 0146 C170     		strb	r1, [r0, #3]
 184 0148 002B     		cmp	r3, #0
 185 014a 4CD0     		beq	.L54
 186 014c 354B     		ldr	r3, .L57+28
 187 014e 4FF0350C 		mov	ip, #53
 188 0152 72E7     		b	.L14
 189              	.L7:
 190 0154 2C49     		ldr	r1, .L57
 191 0156 0B6C     		ldr	r3, [r1, #64]
 192 0158 43F48023 		orr	r3, r3, #262144
 193 015c 0B64     		str	r3, [r1, #64]
 194 015e 8369     		ldr	r3, [r0, #24]	@ unaligned
 195 0160 0022     		movs	r2, #0
 196 0162 4824     		movs	r4, #72
 197 0164 4021     		movs	r1, #64
 198 0166 0270     		strb	r2, [r0]
 199 0168 4470     		strb	r4, [r0, #1]
 200 016a 8270     		strb	r2, [r0, #2]
 201 016c C170     		strb	r1, [r0, #3]
 202 016e 73B1     		cbz	r3, .L55
 203 0170 2D4B     		ldr	r3, .L57+32
 204 0172 4FF0270C 		mov	ip, #39
 205 0176 60E7     		b	.L14
 206              	.L53:
 207 0178 4369     		ldr	r3, [r0, #20]	@ unaligned
 208 017a 23B1     		cbz	r3, .L25
 209 017c 284A     		ldr	r2, .L57+24
 210 017e 5369     		ldr	r3, [r2, #20]
 211 0180 43F04003 		orr	r3, r3, #64
 212 0184 5361     		str	r3, [r2, #20]
 213              	.L25:
 214 0186 264B     		ldr	r3, .L57+24
 215 0188 4FF0340C 		mov	ip, #52
 216 018c 5FE7     		b	.L22
 217              	.L55:
 218 018e 4369     		ldr	r3, [r0, #20]	@ unaligned
 219 0190 23B1     		cbz	r3, .L27
 220 0192 254A     		ldr	r2, .L57+32
 221 0194 5369     		ldr	r3, [r2, #20]
 222 0196 43F04003 		orr	r3, r3, #64
 223 019a 5361     		str	r3, [r2, #20]
 224              	.L27:
 225 019c 224B     		ldr	r3, .L57+32
 226 019e 4FF0270C 		mov	ip, #39
 227 01a2 54E7     		b	.L22
 228              	.L52:
 229 01a4 4369     		ldr	r3, [r0, #20]	@ unaligned
ARM GAS  /tmp/ccCRJlpE.s 			page 5


 230 01a6 23B1     		cbz	r3, .L29
 231 01a8 184A     		ldr	r2, .L57+4
 232 01aa 5369     		ldr	r3, [r2, #20]
 233 01ac 43F04003 		orr	r3, r3, #64
 234 01b0 5361     		str	r3, [r2, #20]
 235              	.L29:
 236 01b2 164B     		ldr	r3, .L57+4
 237 01b4 4FF0260C 		mov	ip, #38
 238 01b8 49E7     		b	.L22
 239              	.L41:
 240 01ba 174B     		ldr	r3, .L57+16
 241 01bc 4FF0470C 		mov	ip, #71
 242              	.L10:
 243 01c0 5A69     		ldr	r2, [r3, #20]
 244 01c2 42F08002 		orr	r2, r2, #128
 245 01c6 5A61     		str	r2, [r3, #20]
 246 01c8 4269     		ldr	r2, [r0, #20]	@ unaligned
 247 01ca BAB9     		cbnz	r2, .L56
 248              	.L12:
 249 01cc 104A     		ldr	r2, .L57+8
 250 01ce 8168     		ldr	r1, [r0, #8]	@ unaligned
 251 01d0 1268     		ldr	r2, [r2]
 252 01d2 8901     		lsls	r1, r1, #6
 253 01d4 D200     		lsls	r2, r2, #3
 254 01d6 B2FBF1F2 		udiv	r2, r2, r1
 255 01da 9A60     		str	r2, [r3, #8]
 256 01dc 3FE7     		b	.L31
 257              	.L36:
 258 01de 0F4B     		ldr	r3, .L57+20
 259 01e0 4FF0250C 		mov	ip, #37
 260 01e4 ECE7     		b	.L10
 261              	.L54:
 262 01e6 4369     		ldr	r3, [r0, #20]	@ unaligned
 263 01e8 23B1     		cbz	r3, .L23
 264 01ea 0E4A     		ldr	r2, .L57+28
 265 01ec 5369     		ldr	r3, [r2, #20]
 266 01ee 43F04003 		orr	r3, r3, #64
 267 01f2 5361     		str	r3, [r2, #20]
 268              	.L23:
 269 01f4 0B4B     		ldr	r3, .L57+28
 270 01f6 4FF0350C 		mov	ip, #53
 271 01fa 28E7     		b	.L22
 272              	.L56:
 273 01fc 5A69     		ldr	r2, [r3, #20]
 274 01fe 42F04002 		orr	r2, r2, #64
 275 0202 5A61     		str	r2, [r3, #20]
 276 0204 E2E7     		b	.L12
 277              	.L58:
 278 0206 00BF     		.align	2
 279              	.L57:
 280 0208 00380240 		.word	1073887232
 281 020c 00440040 		.word	1073759232
 282 0210 00000000 		.word	SystemCoreClock
 283 0214 00E100E0 		.word	-536813312
 284 0218 00140140 		.word	1073812480
 285 021c 00100140 		.word	1073811456
 286 0220 004C0040 		.word	1073761280
ARM GAS  /tmp/ccCRJlpE.s 			page 6


 287 0224 00500040 		.word	1073762304
 288 0228 00480040 		.word	1073760256
 290              		.ident	"GCC: (15:12.2.rel1-1) 12.2.1 20221205"
ARM GAS  /tmp/ccCRJlpE.s 			page 7


DEFINED SYMBOLS
                            *ABS*:00000000 usart.c
     /tmp/ccCRJlpE.s:18     .text.USART_Init:00000000 $t
     /tmp/ccCRJlpE.s:25     .text.USART_Init:00000000 USART_Init
     /tmp/ccCRJlpE.s:36     .text.USART_Init:0000000e $d
     /tmp/ccCRJlpE.s:42     .text.USART_Init:00000014 $t
     /tmp/ccCRJlpE.s:280    .text.USART_Init:00000208 $d

UNDEFINED SYMBOLS
SystemCoreClock
